target datalayout = "e-m:e-p270:32:32-p271:32:32-p272:64:64-i64:64-i128:128-f80:128-n8:16:32:64-S128"
target triple = "x86_64-unknown-linux-gnu"

%"class.datalog::check_table" = type { %"class.datalog::table_base.base", ptr, ptr }
%"class.datalog::table_base.base" = type { %"class.datalog::tr_infrastructure<datalog::table_traits>::base_ancestor.base" }
%"class.datalog::tr_infrastructure<datalog::table_traits>::base_ancestor.base" = type <{ ptr, ptr, %"class.datalog::table_signature", i32 }>
%"class.datalog::table_signature" = type <{ %"class.datalog::tr_infrastructure<datalog::table_traits>::signature_base", i32, [4 x i8] }>
%"class.datalog::tr_infrastructure<datalog::table_traits>::signature_base" = type { %class.svector }
%class.svector = type { %class.vector }
%class.vector = type { ptr }

@.str = private unnamed_addr constant [2 x i8] c"\0A\00", align 1
@__FUNCTION__._ZN7datalog11check_table8add_factERK7svectorImjE = private unnamed_addr constant [9 x i8] c"add_fact\00", align 1

; Function Attrs: mustprogress uwtable
define hidden void @_ZN7datalog11check_table8add_factERK7svectorImjE(ptr noundef nonnull align 8 dereferenceable(56) %this, ptr noundef nonnull align 8 dereferenceable(8) %f) unnamed_addr #4 align 2 {
entry:
  %this.addr = alloca ptr, align 8
  %f.addr = alloca ptr, align 8
  store ptr %this, ptr %this.addr, align 8
  store ptr %f, ptr %f.addr, align 8
  %this1 = load ptr, ptr %this.addr, align 8
  %call = call noundef i32 @_Z19get_verbosity_levelv()
  %cmp = icmp uge i32 %call, 1
  br i1 %cmp, label %if.then, label %if.end10

if.then:                                          ; preds = %entry
  %call2 = call noundef zeroext i1 @_Z11is_threadedv()
  br i1 %call2, label %if.then3, label %if.else

if.then3:                                         ; preds = %if.then
  call void @_Z12verbose_lockv()
  %call4 = call noundef nonnull align 8 dereferenceable(8) ptr @_Z14verbose_streamv()
  %call5 = call noundef nonnull align 8 dereferenceable(8) ptr @_ZStlsISt11char_traitsIcEERSt13basic_ostreamIcT_ES5_PKc(ptr noundef nonnull align 8 dereferenceable(8) %call4, ptr noundef @__FUNCTION__._ZN7datalog11check_table8add_factERK7svectorImjE)
  %call6 = call noundef nonnull align 8 dereferenceable(8) ptr @_ZStlsISt11char_traitsIcEERSt13basic_ostreamIcT_ES5_PKc(ptr noundef nonnull align 8 dereferenceable(8) %call5, ptr noundef @.str)
  call void @_Z14verbose_unlockv()
  br label %if.end

if.else:                                          ; preds = %if.then
  %call7 = call noundef nonnull align 8 dereferenceable(8) ptr @_Z14verbose_streamv()
  %call8 = call noundef nonnull align 8 dereferenceable(8) ptr @_ZStlsISt11char_traitsIcEERSt13basic_ostreamIcT_ES5_PKc(ptr noundef nonnull align 8 dereferenceable(8) %call7, ptr noundef @__FUNCTION__._ZN7datalog11check_table8add_factERK7svectorImjE)
  %call9 = call noundef nonnull align 8 dereferenceable(8) ptr @_ZStlsISt11char_traitsIcEERSt13basic_ostreamIcT_ES5_PKc(ptr noundef nonnull align 8 dereferenceable(8) %call8, ptr noundef @.str)
  br label %if.end

if.end:                                           ; preds = %if.else, %if.then3
  br label %if.end10

if.end10:                                         ; preds = %if.end, %entry
  %m_tocheck = getelementptr inbounds %"class.datalog::check_table", ptr %this1, i32 0, i32 2
  %0 = load ptr, ptr %m_tocheck, align 8
  %1 = load ptr, ptr %f.addr, align 8
  %vtable = load ptr, ptr %0, align 8
  %vfn = getelementptr inbounds ptr, ptr %vtable, i64 5
  %2 = load ptr, ptr %vfn, align 8
  call void %2(ptr noundef nonnull align 8 dereferenceable(36) %0, ptr noundef nonnull align 8 dereferenceable(8) %1)
  %m_checker = getelementptr inbounds %"class.datalog::check_table", ptr %this1, i32 0, i32 1
  %3 = load ptr, ptr %m_checker, align 8
  %4 = load ptr, ptr %f.addr, align 8
  %vtable11 = load ptr, ptr %3, align 8
  %vfn12 = getelementptr inbounds ptr, ptr %vtable11, i64 5
  %5 = load ptr, ptr %vfn12, align 8
  call void %5(ptr noundef nonnull align 8 dereferenceable(36) %3, ptr noundef nonnull align 8 dereferenceable(8) %4)
  %call13 = call noundef zeroext i1 @_ZNK7datalog11check_table11well_formedEv(ptr noundef nonnull align 8 dereferenceable(56) %this1)
  ret void
}